; Function Attrs: nounwind uwtable
define range(i32 -1, 1) i32 @H5T__ref_reclaim(ptr noundef %0, ptr noundef readonly captures(none) %1) local_unnamed_addr #0 {
  %3 = load i8, ptr @H5T_init_g, align 1, !tbaa !3, !range !7, !noundef !8
  %4 = trunc nuw i8 %3 to i1
  %5 = load i8, ptr @H5_libterm_g, align 1, !range !7
  %6 = trunc nuw i8 %5 to i1
  %7 = xor i1 %6, true
  %8 = select i1 %4, i1 true, i1 %7
  br i1 %8, label %9, label %22, !prof !9

9:                                                ; preds = %2
  %10 = getelementptr inbounds nuw i8, ptr %1, i64 40
  %11 = load ptr, ptr %10, align 8, !tbaa !10
  %12 = getelementptr inbounds nuw i8, ptr %11, i64 88
  %13 = load i8, ptr %12, align 8, !tbaa !22, !range !7, !noundef !8
  %14 = trunc nuw i8 %13 to i1
  br i1 %14, label %15, label %22

15:                                               ; preds = %9
  %16 = tail call i32 @H5R__destroy(ptr noundef %0) #11
  %17 = icmp slt i32 %16, 0
  br i1 %17, label %18, label %22

18:                                               ; preds = %15
  %19 = load i64, ptr @H5E_REFERENCE_g, align 8, !tbaa !26
  %20 = load i64, ptr @H5E_CANTFREE_g, align 8, !tbaa !26
  %21 = tail call i32 (ptr, ptr, i32, i64, i64, ptr, ...) @H5E_printf_stack(ptr noundef nonnull @.str, ptr noundef nonnull @__func__.H5T__ref_reclaim, i32 noundef 1354, i64 noundef %19, i64 noundef %20, ptr noundef nonnull @.str.8) #11
  br label %22

22:                                               ; preds = %18, %15, %9, %2
  %.0 = phi i32 [ -1, %18 ], [ 0, %15 ], [ 0, %9 ], [ 0, %2 ]
  ret i32 %.0
}